Archive member included because of file (symbol)

c:/devkitpro/devkitarm/bin/../lib/gcc/arm-eabi/4.3.2/../../../../arm-eabi/lib/thumb\libg.a(lib_a-init.o)
                              c:/devkitpro/devkitarm/bin/../lib/gcc/arm-eabi/4.3.2/../../../../arm-eabi/lib/thumb/ds_arm9_crt0.o (__libc_init_array)
c:/devkitpro/devkitarm/bin/../lib/gcc/arm-eabi/4.3.2/../../../../arm-eabi/lib/thumb\libsysbase.a(malloc_vars.o)
                              c:/devkitpro/devkitarm/bin/../lib/gcc/arm-eabi/4.3.2/../../../../arm-eabi/lib/thumb/ds_arm9_crt0.o (fake_heap_end)
c:/devkitpro/devkitarm/bin/../lib/gcc/arm-eabi/4.3.2/../../../../arm-eabi/lib/thumb\libsysbase.a(build_argv.o)
                              c:/devkitpro/devkitarm/bin/../lib/gcc/arm-eabi/4.3.2/../../../../arm-eabi/lib/thumb/ds_arm9_crt0.o (build_argv)

Memory Configuration

Name             Origin             Length             Attributes
rom              0x08000000         0x02000000
ewram            0x02000000         0x003ff000
dtcm             0x0b000000         0x00004000
vectors          0x00000000         0x00000100
itcm             0x01000100         0x00007f00
*default*        0x00000000         0xffffffff

Linker script and memory map

                0x00000000                __vectors_start = 0x0
                0x01000100                __itcm_start = 0x1000100
                0x023ff000                __ewram_end = 0x23ff000
                0x023ff000                __eheap_end = 0x23ff000
                0x0b000000                __dtcm_start = 0xb000000
                0x0b004000                __dtcm_top = 0xb004000
                0x0b003ff8                __irq_flags = (__dtcm_top - 0x8)
                0x0b003ffc                __irq_vector = (__dtcm_top - 0x4)
                0x0b003f00                __sp_svc = (__dtcm_top - 0x100)
                0x0b003e00                __sp_irq = (__sp_svc - 0x100)
                0x0b003d00                __sp_usr = (__sp_irq - 0x100)

.init           0x02000000      0x30c
                0x02000000                __text_start = .
 *(.init)
 .init          0x02000000      0x300 c:/devkitpro/devkitarm/bin/../lib/gcc/arm-eabi/4.3.2/../../../../arm-eabi/lib/thumb/ds_arm9_crt0.o
                0x02000000                _start
 .init          0x02000300        0x4 c:/devkitpro/devkitarm/bin/../lib/gcc/arm-eabi/4.3.2/thumb/crti.o
                0x02000300                _init
 .init          0x02000304        0x8 c:/devkitpro/devkitarm/bin/../lib/gcc/arm-eabi/4.3.2/thumb/crtn.o
                0x0200030c                . = ALIGN (0x4)

.plt
 *(.plt)

.text           0x02000310     0x53a4
 *(EXCLUDE_FILE(*.itcm*) .text)
 .text          0x02000310        0x0 c:/devkitpro/devkitarm/bin/../lib/gcc/arm-eabi/4.3.2/../../../../arm-eabi/lib/thumb/ds_arm9_crt0.o
 .text          0x02000310        0x0 c:/devkitpro/devkitarm/bin/../lib/gcc/arm-eabi/4.3.2/thumb/crti.o
 .text          0x02000310       0x70 c:/devkitpro/devkitarm/bin/../lib/gcc/arm-eabi/4.3.2/thumb/crtbegin.o
 .text          0x02000380        0x0 Font.o
 .text          0x02000380        0x0 Level1.o
 .text          0x02000380        0x0 Meter.o
 .text          0x02000380        0x0 Score.o
 .text          0x02000380        0x0 Sprites.o
 .text          0x02000380        0x0 StarBack.o
 .text          0x02000380        0x0 StarFront.o
 .text          0x02000380        0x0 blaster.o
 .text          0x02000380        0x0 ingame.o
 .text          0x02000380      0x2d0 audio.o
                0x020005d4                playInGameMusic
                0x020005f4                playBlasterSound
 .text          0x02000650       0x70 bioscalls.o
                0x02000696                swiDecompressLZSSVram
                0x0200067e                swiFastCopy
                0x02000682                swiSqrt
                0x02000650                swiSoftReset
                0x02000686                swiCRC16
                0x0200069a                swiDecompressHuffman
                0x020006ae                swiSetHaltCR
                0x02000668                swiRemainder
                0x0200068e                swiUnpackBits
                0x02000692                swiDecompressLZSSWram
                0x020006aa                swiDecodeDelta16
                0x02000654                swiDelay
                0x0200066e                swiDivMod
                0x020006a2                swiDecompressRLEVram
                0x0200069e                swiDecompressRLEWram
                0x020006a6                swiDecodeDelta8
                0x02000664                swiDivide
                0x0200065c                swiWaitForVBlank
                0x02000658                swiIntrWait
                0x0200068a                swiIsDebugger
                0x02000660                swiWaitForIRQ
                0x0200067a                swiCopy
 .text          0x020006c0      0x310 clearbg.o
                0x02000954                clearBG2
                0x02000914                clearBG0
                0x02000974                clearBG3
                0x02000934                clearBG1
 .text          0x020009d0      0x460 collidebg.o
                0x02000c24                detectBG
 .text          0x02000e30        0x0 colmap1.o
 .text          0x02000e30      0x33c debug.o
                0x02001094                breakPoint
                0x020010a0                drawDebugString
                0x02001084                flushCaches
 .text          0x0200116c       0x38 divide.o
                0x0200116c                divideNumber
 .text          0x020011a4      0x63c drawmap.o
                0x02001458                drawDamagedBlockMain
                0x020014bc                drawDamagedBlockSub
                0x02001758                drawSBMapSub
                0x020016ec                drawSFMapMain
                0x02001520                drawMapMain
                0x02001618                drawMapScreenMain
                0x0200159c                drawMapSub
                0x02001680                drawMapScreenSub
                0x02001710                drawSFMapSub
                0x02001734                drawSBMapMain
 .text          0x020017e0      0x340 drawscore.o
                0x02001ad8                drawScore
                0x02001a34                addScore
 .text          0x02001b20      0x4dc drawsprite.o
                0x02001d74                drawSprite
 .text          0x02001ffc      0x450 drawtext.o
                0x02002308                drawGetReadyText
                0x02002378                drawDigits
                0x02002338                drawText
                0x02002250                drawDebugText
 .text          0x0200244c      0x440 fire.o
                0x020026d0                fireCheck
                0x020026a0                waitforFire
                0x020027e4                moveBullets
 .text          0x0200288c      0x270 globals.o
 .text          0x02002afc      0x2ec initdata.o
                0x02002d50                initData
 .text          0x02002de8      0x2e8 initsprites.o
                0x0200303c                initSprites
 .text          0x020030d0      0x534 initvideo.o
                0x02003324                initVideo
 .text          0x02003604        0x0 interruptDispatcher.o
 .text          0x02003604      0x31c interruptHandler.o
                0x0200389c                initInterruptHandler
 .text          0x02003920      0xfac main.o
                0x02003b78                main
                0x02003b74                initSystem
 .text          0x020048cc      0x3b8 moveship.o
                0x02004b20                moveShip
 .text          0x02004c84      0x63c scrollmap.o
                0x020051ec                levelDrift
                0x02005208                checkEndOfLevel
                0x02005028                scrollSBMain
                0x02004ed8                scrollMain
                0x0200519c                scrollStars
                0x02004ff8                scrollSFSub
                0x02004f50                scrollSub
                0x02005058                scrollSBSub
                0x02004fc8                scrollSFMain
 .text          0x020052c0        0x0 sinus.o
 .text          0x020052c0      0x318 waitvblank.o
                0x02005514                waitforVblank
                0x02005588                waitforNoblank
 .text          0x020055d8       0x88 c:/devkitpro/devkitarm/bin/../lib/gcc/arm-eabi/4.3.2/../../../../arm-eabi/lib/thumb\libg.a(lib_a-init.o)
                0x02005608                __libc_init_array
                0x020055d8                __libc_fini_array
 .text          0x02005660        0x0 c:/devkitpro/devkitarm/bin/../lib/gcc/arm-eabi/4.3.2/../../../../arm-eabi/lib/thumb\libsysbase.a(malloc_vars.o)
 .text          0x02005660       0x54 c:/devkitpro/devkitarm/bin/../lib/gcc/arm-eabi/4.3.2/../../../../arm-eabi/lib/thumb\libsysbase.a(build_argv.o)
                0x02005660                build_argv
 .text          0x020056b4        0x0 c:/devkitpro/devkitarm/bin/../lib/gcc/arm-eabi/4.3.2/thumb/crtend.o
 .text          0x020056b4        0x0 c:/devkitpro/devkitarm/bin/../lib/gcc/arm-eabi/4.3.2/thumb/crtn.o
 *(.text.*)
 *(.stub)
 *(.gnu.warning)
 *(.gnu.linkonce.t*)
 *(.glue_7)
 .glue_7        0x020056b4        0x0 c:/devkitpro/devkitarm/bin/../lib/gcc/arm-eabi/4.3.2/../../../../arm-eabi/lib/thumb/ds_arm9_crt0.o
 .glue_7        0x020056b4        0x0 c:/devkitpro/devkitarm/bin/../lib/gcc/arm-eabi/4.3.2/thumb/crti.o
 .glue_7        0x020056b4        0x0 c:/devkitpro/devkitarm/bin/../lib/gcc/arm-eabi/4.3.2/thumb/crtbegin.o
 .glue_7        0x020056b4        0x0 Font.o
 .glue_7        0x020056b4        0x0 Level1.o
 .glue_7        0x020056b4        0x0 Meter.o
 .glue_7        0x020056b4        0x0 Score.o
 .glue_7        0x020056b4        0x0 Sprites.o
 .glue_7        0x020056b4        0x0 StarBack.o
 .glue_7        0x020056b4        0x0 StarFront.o
 .glue_7        0x020056b4        0x0 blaster.o
 .glue_7        0x020056b4        0x0 ingame.o
 .glue_7        0x020056b4        0x0 audio.o
 .glue_7        0x020056b4        0x0 bioscalls.o
 .glue_7        0x020056b4        0x0 clearbg.o
 .glue_7        0x020056b4        0x0 collidebg.o
 .glue_7        0x020056b4        0x0 colmap1.o
 .glue_7        0x020056b4        0x0 debug.o
 .glue_7        0x020056b4        0x0 divide.o
 .glue_7        0x020056b4        0x0 drawmap.o
 .glue_7        0x020056b4        0x0 drawscore.o
 .glue_7        0x020056b4        0x0 drawsprite.o
 .glue_7        0x020056b4        0x0 drawtext.o
 .glue_7        0x020056b4        0x0 fire.o
 .glue_7        0x020056b4        0x0 globals.o
 .glue_7        0x020056b4        0x0 initdata.o
 .glue_7        0x020056b4        0x0 initsprites.o
 .glue_7        0x020056b4        0x0 initvideo.o
 .glue_7        0x020056b4        0x0 interruptDispatcher.o
 .glue_7        0x020056b4        0x0 interruptHandler.o
 .glue_7        0x020056b4        0x0 main.o
 .glue_7        0x020056b4        0x0 moveship.o
 .glue_7        0x020056b4        0x0 scrollmap.o
 .glue_7        0x020056b4        0x0 sinus.o
 .glue_7        0x020056b4        0x0 waitvblank.o
 .glue_7        0x020056b4        0x0 c:/devkitpro/devkitarm/bin/../lib/gcc/arm-eabi/4.3.2/../../../../arm-eabi/lib/thumb\libg.a(lib_a-init.o)
 .glue_7        0x020056b4        0x0 c:/devkitpro/devkitarm/bin/../lib/gcc/arm-eabi/4.3.2/../../../../arm-eabi/lib/thumb\libsysbase.a(malloc_vars.o)
 .glue_7        0x020056b4        0x0 c:/devkitpro/devkitarm/bin/../lib/gcc/arm-eabi/4.3.2/../../../../arm-eabi/lib/thumb\libsysbase.a(build_argv.o)
 .glue_7        0x020056b4        0x0 c:/devkitpro/devkitarm/bin/../lib/gcc/arm-eabi/4.3.2/thumb/crtend.o
 .glue_7        0x020056b4        0x0 c:/devkitpro/devkitarm/bin/../lib/gcc/arm-eabi/4.3.2/thumb/crtn.o
 *(.glue_7t)
 .glue_7t       0x020056b4        0x0 c:/devkitpro/devkitarm/bin/../lib/gcc/arm-eabi/4.3.2/../../../../arm-eabi/lib/thumb/ds_arm9_crt0.o
 .glue_7t       0x020056b4        0x0 c:/devkitpro/devkitarm/bin/../lib/gcc/arm-eabi/4.3.2/thumb/crti.o
 .glue_7t       0x020056b4        0x0 c:/devkitpro/devkitarm/bin/../lib/gcc/arm-eabi/4.3.2/thumb/crtbegin.o
 .glue_7t       0x020056b4        0x0 Font.o
 .glue_7t       0x020056b4        0x0 Level1.o
 .glue_7t       0x020056b4        0x0 Meter.o
 .glue_7t       0x020056b4        0x0 Score.o
 .glue_7t       0x020056b4        0x0 Sprites.o
 .glue_7t       0x020056b4        0x0 StarBack.o
 .glue_7t       0x020056b4        0x0 StarFront.o
 .glue_7t       0x020056b4        0x0 blaster.o
 .glue_7t       0x020056b4        0x0 ingame.o
 .glue_7t       0x020056b4        0x0 audio.o
 .glue_7t       0x020056b4        0x0 bioscalls.o
 .glue_7t       0x020056b4        0x0 clearbg.o
 .glue_7t       0x020056b4        0x0 collidebg.o
 .glue_7t       0x020056b4        0x0 colmap1.o
 .glue_7t       0x020056b4        0x0 debug.o
 .glue_7t       0x020056b4        0x0 divide.o
 .glue_7t       0x020056b4        0x0 drawmap.o
 .glue_7t       0x020056b4        0x0 drawscore.o
 .glue_7t       0x020056b4        0x0 drawsprite.o
 .glue_7t       0x020056b4        0x0 drawtext.o
 .glue_7t       0x020056b4        0x0 fire.o
 .glue_7t       0x020056b4        0x0 globals.o
 .glue_7t       0x020056b4        0x0 initdata.o
 .glue_7t       0x020056b4        0x0 initsprites.o
 .glue_7t       0x020056b4        0x0 initvideo.o
 .glue_7t       0x020056b4        0x0 interruptDispatcher.o
 .glue_7t       0x020056b4        0x0 interruptHandler.o
 .glue_7t       0x020056b4        0x0 main.o
 .glue_7t       0x020056b4        0x0 moveship.o
 .glue_7t       0x020056b4        0x0 scrollmap.o
 .glue_7t       0x020056b4        0x0 sinus.o
 .glue_7t       0x020056b4        0x0 waitvblank.o
 .glue_7t       0x020056b4        0x0 c:/devkitpro/devkitarm/bin/../lib/gcc/arm-eabi/4.3.2/../../../../arm-eabi/lib/thumb\libg.a(lib_a-init.o)
 .glue_7t       0x020056b4        0x0 c:/devkitpro/devkitarm/bin/../lib/gcc/arm-eabi/4.3.2/../../../../arm-eabi/lib/thumb\libsysbase.a(malloc_vars.o)
 .glue_7t       0x020056b4        0x0 c:/devkitpro/devkitarm/bin/../lib/gcc/arm-eabi/4.3.2/../../../../arm-eabi/lib/thumb\libsysbase.a(build_argv.o)
 .glue_7t       0x020056b4        0x0 c:/devkitpro/devkitarm/bin/../lib/gcc/arm-eabi/4.3.2/thumb/crtend.o
 .glue_7t       0x020056b4        0x0 c:/devkitpro/devkitarm/bin/../lib/gcc/arm-eabi/4.3.2/thumb/crtn.o
                0x020056b4                . = ALIGN (0x4)

.vfp11_veneer   0x00000000        0x0
 .vfp11_veneer  0x00000000        0x0 c:/devkitpro/devkitarm/bin/../lib/gcc/arm-eabi/4.3.2/../../../../arm-eabi/lib/thumb/ds_arm9_crt0.o
 .vfp11_veneer  0x00000000        0x0 c:/devkitpro/devkitarm/bin/../lib/gcc/arm-eabi/4.3.2/thumb/crti.o
 .vfp11_veneer  0x00000000        0x0 c:/devkitpro/devkitarm/bin/../lib/gcc/arm-eabi/4.3.2/thumb/crtbegin.o
 .vfp11_veneer  0x00000000        0x0 Font.o
 .vfp11_veneer  0x00000000        0x0 Level1.o
 .vfp11_veneer  0x00000000        0x0 Meter.o
 .vfp11_veneer  0x00000000        0x0 Score.o
 .vfp11_veneer  0x00000000        0x0 Sprites.o
 .vfp11_veneer  0x00000000        0x0 StarBack.o
 .vfp11_veneer  0x00000000        0x0 StarFront.o
 .vfp11_veneer  0x00000000        0x0 blaster.o
 .vfp11_veneer  0x00000000        0x0 ingame.o
 .vfp11_veneer  0x00000000        0x0 audio.o
 .vfp11_veneer  0x00000000        0x0 bioscalls.o
 .vfp11_veneer  0x00000000        0x0 clearbg.o
 .vfp11_veneer  0x00000000        0x0 collidebg.o
 .vfp11_veneer  0x00000000        0x0 colmap1.o
 .vfp11_veneer  0x00000000        0x0 debug.o
 .vfp11_veneer  0x00000000        0x0 divide.o
 .vfp11_veneer  0x00000000        0x0 drawmap.o
 .vfp11_veneer  0x00000000        0x0 drawscore.o
 .vfp11_veneer  0x00000000        0x0 drawsprite.o
 .vfp11_veneer  0x00000000        0x0 drawtext.o
 .vfp11_veneer  0x00000000        0x0 fire.o
 .vfp11_veneer  0x00000000        0x0 globals.o
 .vfp11_veneer  0x00000000        0x0 initdata.o
 .vfp11_veneer  0x00000000        0x0 initsprites.o
 .vfp11_veneer  0x00000000        0x0 initvideo.o
 .vfp11_veneer  0x00000000        0x0 interruptDispatcher.o
 .vfp11_veneer  0x00000000        0x0 interruptHandler.o
 .vfp11_veneer  0x00000000        0x0 main.o
 .vfp11_veneer  0x00000000        0x0 moveship.o
 .vfp11_veneer  0x00000000        0x0 scrollmap.o
 .vfp11_veneer  0x00000000        0x0 sinus.o
 .vfp11_veneer  0x00000000        0x0 waitvblank.o
 .vfp11_veneer  0x00000000        0x0 c:/devkitpro/devkitarm/bin/../lib/gcc/arm-eabi/4.3.2/../../../../arm-eabi/lib/thumb\libg.a(lib_a-init.o)
 .vfp11_veneer  0x00000000        0x0 c:/devkitpro/devkitarm/bin/../lib/gcc/arm-eabi/4.3.2/../../../../arm-eabi/lib/thumb\libsysbase.a(malloc_vars.o)
 .vfp11_veneer  0x00000000        0x0 c:/devkitpro/devkitarm/bin/../lib/gcc/arm-eabi/4.3.2/../../../../arm-eabi/lib/thumb\libsysbase.a(build_argv.o)
 .vfp11_veneer  0x00000000        0x0 c:/devkitpro/devkitarm/bin/../lib/gcc/arm-eabi/4.3.2/thumb/crtend.o
 .vfp11_veneer  0x00000000        0x0 c:/devkitpro/devkitarm/bin/../lib/gcc/arm-eabi/4.3.2/thumb/crtn.o

.v4_bx          0x00000000        0x0
 .v4_bx         0x00000000        0x0 c:/devkitpro/devkitarm/bin/../lib/gcc/arm-eabi/4.3.2/../../../../arm-eabi/lib/thumb/ds_arm9_crt0.o
 .v4_bx         0x00000000        0x0 c:/devkitpro/devkitarm/bin/../lib/gcc/arm-eabi/4.3.2/thumb/crti.o
 .v4_bx         0x00000000        0x0 c:/devkitpro/devkitarm/bin/../lib/gcc/arm-eabi/4.3.2/thumb/crtbegin.o
 .v4_bx         0x00000000        0x0 Font.o
 .v4_bx         0x00000000        0x0 Level1.o
 .v4_bx         0x00000000        0x0 Meter.o
 .v4_bx         0x00000000        0x0 Score.o
 .v4_bx         0x00000000        0x0 Sprites.o
 .v4_bx         0x00000000        0x0 StarBack.o
 .v4_bx         0x00000000        0x0 StarFront.o
 .v4_bx         0x00000000        0x0 blaster.o
 .v4_bx         0x00000000        0x0 ingame.o
 .v4_bx         0x00000000        0x0 audio.o
 .v4_bx         0x00000000        0x0 bioscalls.o
 .v4_bx         0x00000000        0x0 clearbg.o
 .v4_bx         0x00000000        0x0 collidebg.o
 .v4_bx         0x00000000        0x0 colmap1.o
 .v4_bx         0x00000000        0x0 debug.o
 .v4_bx         0x00000000        0x0 divide.o
 .v4_bx         0x00000000        0x0 drawmap.o
 .v4_bx         0x00000000        0x0 drawscore.o
 .v4_bx         0x00000000        0x0 drawsprite.o
 .v4_bx         0x00000000        0x0 drawtext.o
 .v4_bx         0x00000000        0x0 fire.o
 .v4_bx         0x00000000        0x0 globals.o
 .v4_bx         0x00000000        0x0 initdata.o
 .v4_bx         0x00000000        0x0 initsprites.o
 .v4_bx         0x00000000        0x0 initvideo.o
 .v4_bx         0x00000000        0x0 interruptDispatcher.o
 .v4_bx         0x00000000        0x0 interruptHandler.o
 .v4_bx         0x00000000        0x0 main.o
 .v4_bx         0x00000000        0x0 moveship.o
 .v4_bx         0x00000000        0x0 scrollmap.o
 .v4_bx         0x00000000        0x0 sinus.o
 .v4_bx         0x00000000        0x0 waitvblank.o
 .v4_bx         0x00000000        0x0 c:/devkitpro/devkitarm/bin/../lib/gcc/arm-eabi/4.3.2/../../../../arm-eabi/lib/thumb\libg.a(lib_a-init.o)
 .v4_bx         0x00000000        0x0 c:/devkitpro/devkitarm/bin/../lib/gcc/arm-eabi/4.3.2/../../../../arm-eabi/lib/thumb\libsysbase.a(malloc_vars.o)
 .v4_bx         0x00000000        0x0 c:/devkitpro/devkitarm/bin/../lib/gcc/arm-eabi/4.3.2/../../../../arm-eabi/lib/thumb\libsysbase.a(build_argv.o)
 .v4_bx         0x00000000        0x0 c:/devkitpro/devkitarm/bin/../lib/gcc/arm-eabi/4.3.2/thumb/crtend.o
 .v4_bx         0x00000000        0x0 c:/devkitpro/devkitarm/bin/../lib/gcc/arm-eabi/4.3.2/thumb/crtn.o

.fini           0x020056b4        0xc
 *(.fini)
 .fini          0x020056b4        0x4 c:/devkitpro/devkitarm/bin/../lib/gcc/arm-eabi/4.3.2/thumb/crti.o
                0x020056b4                _fini
 .fini          0x020056b8        0x8 c:/devkitpro/devkitarm/bin/../lib/gcc/arm-eabi/4.3.2/thumb/crtn.o
                0x020056c0                __text_end = .

.rodata         0x020056c0   0x105584
 *(.rodata)
 .rodata        0x020056c0      0xf40 Font.o
                0x020056c0                FontTiles
                0x02006400                FontPal
 .rodata        0x02006600    0x11e60 Level1.o
                0x02018260                Level1Pal
                0x02008860                Level1Map
                0x02006600                Level1Tiles
 .rodata        0x02018460      0x2e4 Meter.o
                0x02018460                MeterTiles
                0x02018520                MeterMap
                0x02018544                MeterPal
 .rodata        0x02018744      0x740 Score.o
                0x02018c84                ScorePal
                0x02018744                ScoreTiles
 .rodata        0x02018e84     0x8400 Sprites.o
                0x02021084                SpritesPal
                0x02018e84                SpritesTiles
 .rodata        0x02021284    0x10240 StarBack.o
                0x02029ac4                StarBackMap
                0x020312c4                StarBackPal
                0x02021284                StarBackTiles
 .rodata        0x020314c4     0x7c40 StarFront.o
                0x020314c4                StarFrontTiles
                0x02031704                StarFrontMap
                0x02038f04                StarFrontPal
 .rodata        0x02039104     0x1438 blaster.o
                0x0203a538                blaster_raw_size
                0x02039104                blaster_raw
                0x0203a536                blaster_raw_end
 .rodata        0x0203a53c    0xcfdc8 ingame.o
                0x0203a53c                ingame_wav
                0x0210a2fd                ingame_wav_end
                0x0210a300                ingame_wav_size
 .rodata        0x0210a304      0x7c0 colmap1.o
                0x0210a304                colMap
 .rodata        0x0210aac4      0x180 sinus.o
                0x0210aac4                sinus1
 *all.rodata*(*)
 *(.roda)
 *(.rodata.*)
 *(.gnu.linkonce.r*)
                0x0210ac44                . = ALIGN (0x4)

.ARM.extab
 *(.ARM.extab* .gnu.linkonce.armextab.*)
                0x0210ac44                __exidx_start = .

.ARM.exidx
 *(.ARM.exidx* .gnu.linkonce.armexidx.*)
                0x0210ac44                __exidx_end = .
                0x0210ac44                . = ALIGN (0x4)
                0x0210ac44                PROVIDE (__preinit_array_start, .)

.preinit_array
 *(.preinit_array)
                0x0210ac44                PROVIDE (__preinit_array_end, .)
                0x0210ac44                PROVIDE (__init_array_start, .)

.init_array     0x0210ac44        0x4
 *(.init_array)
 .init_array    0x0210ac44        0x4 c:/devkitpro/devkitarm/bin/../lib/gcc/arm-eabi/4.3.2/thumb/crtbegin.o
                0x0210ac48                PROVIDE (__init_array_end, .)
                0x0210ac48                PROVIDE (__fini_array_start, .)

.fini_array     0x0210ac48        0x4
 *(.fini_array)
 .fini_array    0x0210ac48        0x4 c:/devkitpro/devkitarm/bin/../lib/gcc/arm-eabi/4.3.2/thumb/crtbegin.o
                0x0210ac4c                PROVIDE (__fini_array_end, .)

.ctors          0x0210ac4c        0x0
 *crtbegin.o(.ctors)
 *(EXCLUDE_FILE(*crtend.o) .ctors)
 *(SORT(.ctors.*))
 *(.ctors)
                0x0210ac4c                . = ALIGN (0x4)

.dtors          0x0210ac4c        0x0
 *crtbegin.o(.dtors)
 *(EXCLUDE_FILE(*crtend.o) .dtors)
 *(SORT(.dtors.*))
 *(.dtors)
                0x0210ac4c                . = ALIGN (0x4)

.eh_frame       0x0210ac4c        0x4
 *(.eh_frame)
 .eh_frame      0x0210ac4c        0x0 c:/devkitpro/devkitarm/bin/../lib/gcc/arm-eabi/4.3.2/thumb/crtbegin.o
 .eh_frame      0x0210ac4c        0x4 c:/devkitpro/devkitarm/bin/../lib/gcc/arm-eabi/4.3.2/thumb/crtend.o
                0x0210ac50                . = ALIGN (0x4)

.gcc_except_table
                0x0210ac50        0x0
 *(.gcc_except_table)
                0x0210ac50                . = ALIGN (0x4)

.jcr            0x0210ac50        0x4
 *(.jcr)
 .jcr           0x0210ac50        0x0 c:/devkitpro/devkitarm/bin/../lib/gcc/arm-eabi/4.3.2/thumb/crtbegin.o
 .jcr           0x0210ac50        0x4 c:/devkitpro/devkitarm/bin/../lib/gcc/arm-eabi/4.3.2/thumb/crtend.o

.got
 *(.got.plt)
 *(.got)
 *(.rel.got)

.ewram          0x0210ac54        0x0
                0x0210ac54                __ewram_start = ABSOLUTE (.)
 *(.ewram)
 *ewram.*(.text)
                0x0210ac54                . = ALIGN (0x4)

.data           0x0210ac54       0xdc
                0x0210ac54                __data_start = ABSOLUTE (.)
 *(.data)
 .data          0x0210ac54        0x0 c:/devkitpro/devkitarm/bin/../lib/gcc/arm-eabi/4.3.2/../../../../arm-eabi/lib/thumb/ds_arm9_crt0.o
 .data          0x0210ac54        0x0 c:/devkitpro/devkitarm/bin/../lib/gcc/arm-eabi/4.3.2/thumb/crti.o
 .data          0x0210ac54        0x4 c:/devkitpro/devkitarm/bin/../lib/gcc/arm-eabi/4.3.2/thumb/crtbegin.o
                0x0210ac54                __dso_handle
 .data          0x0210ac58        0x0 Font.o
 .data          0x0210ac58        0x0 Level1.o
 .data          0x0210ac58        0x0 Meter.o
 .data          0x0210ac58        0x0 Score.o
 .data          0x0210ac58        0x0 Sprites.o
 .data          0x0210ac58        0x0 StarBack.o
 .data          0x0210ac58        0x0 StarFront.o
 .data          0x0210ac58        0x0 blaster.o
 .data          0x0210ac58        0x0 ingame.o
 .data          0x0210ac58        0x0 audio.o
 .data          0x0210ac58        0x0 bioscalls.o
 .data          0x0210ac58        0x0 clearbg.o
 .data          0x0210ac58        0x0 collidebg.o
 .data          0x0210ac58        0x0 colmap1.o
 .data          0x0210ac58        0x0 debug.o
 .data          0x0210ac58        0x0 divide.o
 .data          0x0210ac58        0x0 drawmap.o
 .data          0x0210ac58        0x0 drawscore.o
 .data          0x0210ac58        0x0 drawsprite.o
 .data          0x0210ac58        0x0 drawtext.o
 .data          0x0210ac58        0x0 fire.o
 .data          0x0210ac58       0xd7 globals.o
                0x0210ac78                delaySF
                0x0210acc0                xpos
                0x0210ac5c                pixelOffsetMain
                0x0210ac9c                vofsSub
                0x0210ac74                levelEnd
                0x0210acb0                yposSBMain
                0x0210acb4                yposSub
                0x0210acbc                yposSBSub
                0x0210ac7c                delaySB
                0x0210ac6c                powerUp
                0x0210aca8                yposMain
                0x0210ac80                score
                0x0210ac60                pressMe
                0x0210ac70                powerUpDelay
                0x0210ace7                vofsSubText
                0x0210acc6                shipXspeed
                0x0210acfb                blockXText
                0x0210aca4                vofsSBSub
                0x0210acac                yposSFMain
                0x0210aca0                vofsSFSub
                0x0210ac64                firePress
                0x0210ad24                pixelOffsetText
                0x0210acc7                getReadyText
                0x0210acdd                spriteYText
                0x0210ac88                adder
                0x0210ad04                blockYText
                0x0210ac90                vofsMain
                0x0210ac68                horizDrift
                0x0210acc4                shipX
                0x0210ac58                pixelOffsetSub
                0x0210ad0d                tileNumText
                0x0210acf1                yposSubText
                0x0210acd3                spriteXText
                0x0210ac98                vofsSBMain
                0x0210acc5                shipY
                0x0210ac94                vofsSFMain
                0x0210acb8                yposSFSub
 .data          0x0210ad2f        0x0 initdata.o
 .data          0x0210ad2f        0x0 initsprites.o
 .data          0x0210ad2f        0x0 initvideo.o
 .data          0x0210ad2f        0x0 interruptDispatcher.o
 .data          0x0210ad2f        0x0 interruptHandler.o
 .data          0x0210ad2f        0x0 main.o
 .data          0x0210ad2f        0x0 moveship.o
 .data          0x0210ad2f        0x0 scrollmap.o
 .data          0x0210ad2f        0x0 sinus.o
 .data          0x0210ad2f        0x0 waitvblank.o
 .data          0x0210ad2f        0x0 c:/devkitpro/devkitarm/bin/../lib/gcc/arm-eabi/4.3.2/../../../../arm-eabi/lib/thumb\libg.a(lib_a-init.o)
 .data          0x0210ad2f        0x0 c:/devkitpro/devkitarm/bin/../lib/gcc/arm-eabi/4.3.2/../../../../arm-eabi/lib/thumb\libsysbase.a(malloc_vars.o)
 .data          0x0210ad2f        0x0 c:/devkitpro/devkitarm/bin/../lib/gcc/arm-eabi/4.3.2/../../../../arm-eabi/lib/thumb\libsysbase.a(build_argv.o)
 .data          0x0210ad2f        0x0 c:/devkitpro/devkitarm/bin/../lib/gcc/arm-eabi/4.3.2/thumb/crtend.o
 .data          0x0210ad2f        0x0 c:/devkitpro/devkitarm/bin/../lib/gcc/arm-eabi/4.3.2/thumb/crtn.o
 *(.data.*)
 *(.gnu.linkonce.d*)
                0x0210ad30                . = ALIGN (0x4)
 *fill*         0x0210ad2f        0x1 ff
                0x0210ad30                __data_end = ABSOLUTE (.)
                0x0210ad30                __dtcm_lma = .
                0x0210ad30                __bss_vma = .

.dtcm           0x0b000000        0x0 load address 0x0210ad30
 *(.dtcm)
 *(.dtcm.*)
                0x0b000000                . = ALIGN (0x4)
                0x0b000000                __dtcm_end = ABSOLUTE (.)
                0x0210ad30                __itcm_lma = (__dtcm_lma + SIZEOF (.dtcm))

.itcm           0x01000100       0xc8 load address 0x0210ad30
 *(.itcm)
 .itcm          0x01000100       0xc8 interruptDispatcher.o
 *itcm.*(.text)
                0x010001c8                . = ALIGN (0x4)
                0x010001c8                __itcm_end = ABSOLUTE (.)
                0x0210adf8                __vectors_lma = (__itcm_lma + SIZEOF (.itcm))

.vectors        0x00000000        0x0 load address 0x0210adf8
 *(.vectors)
 *vectors.*(.text)
                0x00000000                . = ALIGN (0x4)
                0x00000000                __vectors_end = ABSOLUTE (.)

.sbss           0x0b000000        0x0
                0x0b000000                __sbss_start = ABSOLUTE (.)
                0x0b000000                __sbss_start__ = ABSOLUTE (.)
 *(.sbss)
                0x0b000000                . = ALIGN (0x4)
                0x0b000000                __sbss_end = ABSOLUTE (.)

.bss            0x0210ad30     0x6044
                0x0210ad30                __bss_start = ABSOLUTE (.)
                0x0210ad30                __bss_start__ = ABSOLUTE (.)
 *(.dynbss)
 *(.gnu.linkonce.b*)
 *(.bss*)
 .bss           0x0210ad30        0x0 c:/devkitpro/devkitarm/bin/../lib/gcc/arm-eabi/4.3.2/../../../../arm-eabi/lib/thumb/ds_arm9_crt0.o
 .bss           0x0210ad30        0x0 c:/devkitpro/devkitarm/bin/../lib/gcc/arm-eabi/4.3.2/thumb/crti.o
 .bss           0x0210ad30       0x1c c:/devkitpro/devkitarm/bin/../lib/gcc/arm-eabi/4.3.2/thumb/crtbegin.o
 .bss           0x0210ad4c        0x0 Font.o
 .bss           0x0210ad4c        0x0 Level1.o
 .bss           0x0210ad4c        0x0 Meter.o
 .bss           0x0210ad4c        0x0 Score.o
 .bss           0x0210ad4c        0x0 Sprites.o
 .bss           0x0210ad4c        0x0 StarBack.o
 .bss           0x0210ad4c        0x0 StarFront.o
 .bss           0x0210ad4c        0x0 blaster.o
 .bss           0x0210ad4c        0x0 ingame.o
 .bss           0x0210ad4c        0x0 audio.o
 .bss           0x0210ad4c        0x0 bioscalls.o
 .bss           0x0210ad4c        0x0 clearbg.o
 .bss           0x0210ad4c        0x0 collidebg.o
 .bss           0x0210ad4c        0x0 colmap1.o
 .bss           0x0210ad4c        0x0 debug.o
 .bss           0x0210ad4c        0x0 divide.o
 .bss           0x0210ad4c        0x0 drawmap.o
 .bss           0x0210ad4c        0x0 drawscore.o
 .bss           0x0210ad4c        0x0 drawsprite.o
 .bss           0x0210ad4c        0x0 drawtext.o
 .bss           0x0210ad4c        0x0 fire.o
 .bss           0x0210ad4c     0x6020 globals.o
                0x0210c14c                spriteTrackY
                0x0210b14c                spriteY
                0x0210bb4c                spriteMaxSpeed
                0x0210ad4c                spriteActive
                0x0210c34c                spriteObj
                0x0210b54c                spriteSpeedY
                0x0210c94c                spriteInstruct
                0x02110d4c                digits
                0x0211094c                irqTable
                0x0210bf4c                spriteTrackX
                0x0210bd4c                spritePhase
                0x0210af4c                spriteX
                0x0210c54c                spriteHits
                0x0210c74c                spriteAngle
                0x0210b34c                spriteSpeedX
 .bss           0x02110d6c        0x0 initdata.o
 .bss           0x02110d6c        0x0 initsprites.o
 .bss           0x02110d6c        0x0 initvideo.o
 .bss           0x02110d6c        0x0 interruptDispatcher.o
 .bss           0x02110d6c        0x0 interruptHandler.o
 .bss           0x02110d6c        0x0 main.o
 .bss           0x02110d6c        0x0 moveship.o
 .bss           0x02110d6c        0x0 scrollmap.o
 .bss           0x02110d6c        0x0 sinus.o
 .bss           0x02110d6c        0x0 waitvblank.o
 .bss           0x02110d6c        0x0 c:/devkitpro/devkitarm/bin/../lib/gcc/arm-eabi/4.3.2/../../../../arm-eabi/lib/thumb\libg.a(lib_a-init.o)
 .bss           0x02110d6c        0x8 c:/devkitpro/devkitarm/bin/../lib/gcc/arm-eabi/4.3.2/../../../../arm-eabi/lib/thumb\libsysbase.a(malloc_vars.o)
                0x02110d70                fake_heap_start
                0x02110d6c                fake_heap_end
 .bss           0x02110d74        0x0 c:/devkitpro/devkitarm/bin/../lib/gcc/arm-eabi/4.3.2/../../../../arm-eabi/lib/thumb\libsysbase.a(build_argv.o)
 .bss           0x02110d74        0x0 c:/devkitpro/devkitarm/bin/../lib/gcc/arm-eabi/4.3.2/thumb/crtend.o
 .bss           0x02110d74        0x0 c:/devkitpro/devkitarm/bin/../lib/gcc/arm-eabi/4.3.2/thumb/crtn.o
 *(COMMON)
                0x02110d74                . = ALIGN (0x4)
                0x02110d74                __bss_end = ABSOLUTE (.)
                0x02110d74                __bss_end__ = __bss_end
                0x02110d74                _end = __bss_end__
                0x02110d74                __end__ = __bss_end__

.stab
 *(.stab)

.stabstr
 *(.stabstr)

.stab.excl
 *(.stab.excl)

.stab.exclstr
 *(.stab.exclstr)

.stab.index
 *(.stab.index)

.stab.indexstr
 *(.stab.indexstr)

.comment        0x00000000       0xaf
 *(.comment)
 .comment       0x00000000       0x23 c:/devkitpro/devkitarm/bin/../lib/gcc/arm-eabi/4.3.2/thumb/crtbegin.o
 .comment       0x00000023       0x23 c:/devkitpro/devkitarm/bin/../lib/gcc/arm-eabi/4.3.2/../../../../arm-eabi/lib/thumb\libg.a(lib_a-init.o)
 .comment       0x00000046       0x23 c:/devkitpro/devkitarm/bin/../lib/gcc/arm-eabi/4.3.2/../../../../arm-eabi/lib/thumb\libsysbase.a(malloc_vars.o)
 .comment       0x00000069       0x23 c:/devkitpro/devkitarm/bin/../lib/gcc/arm-eabi/4.3.2/../../../../arm-eabi/lib/thumb\libsysbase.a(build_argv.o)
 .comment       0x0000008c       0x23 c:/devkitpro/devkitarm/bin/../lib/gcc/arm-eabi/4.3.2/thumb/crtend.o

.debug
 *(.debug)

.line
 *(.line)

.debug_srcinfo
 *(.debug_srcinfo)

.debug_sfnames
 *(.debug_sfnames)

.debug_aranges  0x00000000      0x2f0
 *(.debug_aranges)
 .debug_aranges
                0x00000000       0x28 c:/devkitpro/devkitarm/bin/../lib/gcc/arm-eabi/4.3.2/thumb/crti.o
 .debug_aranges
                0x00000028       0x20 audio.o
 .debug_aranges
                0x00000048       0x20 bioscalls.o
 .debug_aranges
                0x00000068       0x20 clearbg.o
 .debug_aranges
                0x00000088       0x20 collidebg.o
 .debug_aranges
                0x000000a8       0x20 debug.o
 .debug_aranges
                0x000000c8       0x20 divide.o
 .debug_aranges
                0x000000e8       0x20 drawmap.o
 .debug_aranges
                0x00000108       0x20 drawscore.o
 .debug_aranges
                0x00000128       0x20 drawsprite.o
 .debug_aranges
                0x00000148       0x20 drawtext.o
 .debug_aranges
                0x00000168       0x20 fire.o
 .debug_aranges
                0x00000188       0x20 globals.o
 .debug_aranges
                0x000001a8       0x20 initdata.o
 .debug_aranges
                0x000001c8       0x20 initsprites.o
 .debug_aranges
                0x000001e8       0x20 initvideo.o
 .debug_aranges
                0x00000208       0x20 interruptDispatcher.o
 .debug_aranges
                0x00000228       0x20 interruptHandler.o
 .debug_aranges
                0x00000248       0x20 main.o
 .debug_aranges
                0x00000268       0x20 moveship.o
 .debug_aranges
                0x00000288       0x20 scrollmap.o
 .debug_aranges
                0x000002a8       0x20 waitvblank.o
 .debug_aranges
                0x000002c8       0x28 c:/devkitpro/devkitarm/bin/../lib/gcc/arm-eabi/4.3.2/thumb/crtn.o

.debug_pubnames
 *(.debug_pubnames)

.debug_info     0x00000000      0xde2
 *(.debug_info)
 .debug_info    0x00000000       0x5f c:/devkitpro/devkitarm/bin/../lib/gcc/arm-eabi/4.3.2/thumb/crti.o
 .debug_info    0x0000005f       0x9f audio.o
 .debug_info    0x000000fe       0xa5 bioscalls.o
 .debug_info    0x000001a3       0x9f clearbg.o
 .debug_info    0x00000242       0x9f collidebg.o
 .debug_info    0x000002e1       0x9f debug.o
 .debug_info    0x00000380       0xa2 divide.o
 .debug_info    0x00000422       0x9f drawmap.o
 .debug_info    0x000004c1       0x9f drawscore.o
 .debug_info    0x00000560       0x9f drawsprite.o
 .debug_info    0x000005ff       0x9f drawtext.o
 .debug_info    0x0000069e       0x9f fire.o
 .debug_info    0x0000073d       0x9f globals.o
 .debug_info    0x000007dc       0x9f initdata.o
 .debug_info    0x0000087b       0x9f initsprites.o
 .debug_info    0x0000091a       0x9f initvideo.o
 .debug_info    0x000009b9       0xaf interruptDispatcher.o
 .debug_info    0x00000a68       0x9f interruptHandler.o
 .debug_info    0x00000b07       0x9f main.o
 .debug_info    0x00000ba6       0x9f moveship.o
 .debug_info    0x00000c45       0x9f scrollmap.o
 .debug_info    0x00000ce4       0x9f waitvblank.o
 .debug_info    0x00000d83       0x5f c:/devkitpro/devkitarm/bin/../lib/gcc/arm-eabi/4.3.2/thumb/crtn.o

.debug_abbrev   0x00000000      0x1c8
 *(.debug_abbrev)
 .debug_abbrev  0x00000000       0x12 c:/devkitpro/devkitarm/bin/../lib/gcc/arm-eabi/4.3.2/thumb/crti.o
 .debug_abbrev  0x00000012       0x14 audio.o
 .debug_abbrev  0x00000026       0x14 bioscalls.o
 .debug_abbrev  0x0000003a       0x14 clearbg.o
 .debug_abbrev  0x0000004e       0x14 collidebg.o
 .debug_abbrev  0x00000062       0x14 debug.o
 .debug_abbrev  0x00000076       0x14 divide.o
 .debug_abbrev  0x0000008a       0x14 drawmap.o
 .debug_abbrev  0x0000009e       0x14 drawscore.o
 .debug_abbrev  0x000000b2       0x14 drawsprite.o
 .debug_abbrev  0x000000c6       0x14 drawtext.o
 .debug_abbrev  0x000000da       0x14 fire.o
 .debug_abbrev  0x000000ee       0x14 globals.o
 .debug_abbrev  0x00000102       0x14 initdata.o
 .debug_abbrev  0x00000116       0x14 initsprites.o
 .debug_abbrev  0x0000012a       0x14 initvideo.o
 .debug_abbrev  0x0000013e       0x14 interruptDispatcher.o
 .debug_abbrev  0x00000152       0x14 interruptHandler.o
 .debug_abbrev  0x00000166       0x14 main.o
 .debug_abbrev  0x0000017a       0x14 moveship.o
 .debug_abbrev  0x0000018e       0x14 scrollmap.o
 .debug_abbrev  0x000001a2       0x14 waitvblank.o
 .debug_abbrev  0x000001b6       0x12 c:/devkitpro/devkitarm/bin/../lib/gcc/arm-eabi/4.3.2/thumb/crtn.o

.debug_line     0x00000000     0x1e25
 *(.debug_line)
 .debug_line    0x00000000       0x49 c:/devkitpro/devkitarm/bin/../lib/gcc/arm-eabi/4.3.2/thumb/crti.o
 .debug_line    0x00000049      0x132 audio.o
 .debug_line    0x0000017b       0xa5 bioscalls.o
 .debug_line    0x00000220      0x144 clearbg.o
 .debug_line    0x00000364      0x199 collidebg.o
 .debug_line    0x000004fd      0x139 debug.o
 .debug_line    0x00000636       0x7d divide.o
 .debug_line    0x000006b3      0x20b drawmap.o
 .debug_line    0x000008be      0x157 drawscore.o
 .debug_line    0x00000a15      0x1b6 drawsprite.o
 .debug_line    0x00000bcb      0x193 drawtext.o
 .debug_line    0x00000d5e      0x18b fire.o
 .debug_line    0x00000ee9      0x112 globals.o
 .debug_line    0x00000ffb      0x13c initdata.o
 .debug_line    0x00001137      0x140 initsprites.o
 .debug_line    0x00001277      0x1a0 initvideo.o
 .debug_line    0x00001417       0xae interruptDispatcher.o
 .debug_line    0x000014c5      0x151 interruptHandler.o
 .debug_line    0x00001616      0x2d2 main.o
 .debug_line    0x000018e8      0x171 moveship.o
 .debug_line    0x00001a59      0x203 scrollmap.o
 .debug_line    0x00001c5c      0x14a waitvblank.o
 .debug_line    0x00001da6       0x7f c:/devkitpro/devkitarm/bin/../lib/gcc/arm-eabi/4.3.2/thumb/crtn.o

.debug_frame
 *(.debug_frame)

.debug_str
 *(.debug_str)

.debug_loc
 *(.debug_loc)

.debug_macinfo
 *(.debug_macinfo)

.debug_weaknames
 *(.debug_weaknames)

.debug_funcnames
 *(.debug_funcnames)

.debug_typenames
 *(.debug_typenames)

.debug_varnames
 *(.debug_varnames)

.stack          0x00080000        0x0
                0x00080000                _stack = .
 *(.stack)
LOAD c:/devkitpro/devkitarm/bin/../lib/gcc/arm-eabi/4.3.2/../../../../arm-eabi/lib/thumb/ds_arm9_crt0.o
LOAD c:/devkitpro/devkitarm/bin/../lib/gcc/arm-eabi/4.3.2/thumb/crti.o
LOAD c:/devkitpro/devkitarm/bin/../lib/gcc/arm-eabi/4.3.2/thumb/crtbegin.o
LOAD Font.o
LOAD Level1.o
LOAD Meter.o
LOAD Score.o
LOAD Sprites.o
LOAD StarBack.o
LOAD StarFront.o
LOAD blaster.o
LOAD ingame.o
LOAD audio.o
LOAD bioscalls.o
LOAD clearbg.o
LOAD collidebg.o
LOAD colmap1.o
LOAD debug.o
LOAD divide.o
LOAD drawmap.o
LOAD drawscore.o
LOAD drawsprite.o
LOAD drawtext.o
LOAD fire.o
LOAD globals.o
LOAD initdata.o
LOAD initsprites.o
LOAD initvideo.o
LOAD interruptDispatcher.o
LOAD interruptHandler.o
LOAD main.o
LOAD moveship.o
LOAD scrollmap.o
LOAD sinus.o
LOAD waitvblank.o
START GROUP
LOAD c:/devkitpro/devkitarm/bin/../lib/gcc/arm-eabi/4.3.2/thumb\libgcc.a
LOAD c:/devkitpro/devkitarm/bin/../lib/gcc/arm-eabi/4.3.2/../../../../arm-eabi/lib/thumb\libg.a
LOAD c:/devkitpro/devkitarm/bin/../lib/gcc/arm-eabi/4.3.2/../../../../arm-eabi/lib/thumb\libc.a
LOAD c:/devkitpro/devkitarm/bin/../lib/gcc/arm-eabi/4.3.2/../../../../arm-eabi/lib/thumb\libsysbase.a
END GROUP
LOAD c:/devkitpro/devkitarm/bin/../lib/gcc/arm-eabi/4.3.2/thumb/crtend.o
LOAD c:/devkitpro/devkitarm/bin/../lib/gcc/arm-eabi/4.3.2/thumb/crtn.o
OUTPUT(c:/devkitPro/source/nds/WarhawkDS/WarhawkGame/arm9/WarhawkGame.arm9.elf elf32-littlearm)

.ARM.attributes
                0x00000000       0x2f
 .ARM.attributes
                0x00000000       0x1f c:/devkitpro/devkitarm/bin/../lib/gcc/arm-eabi/4.3.2/../../../../arm-eabi/lib/thumb/ds_arm9_crt0.o
 .ARM.attributes
                0x0000001f       0x1e c:/devkitpro/devkitarm/bin/../lib/gcc/arm-eabi/4.3.2/thumb/crti.o
 .ARM.attributes
                0x0000003d       0x2e c:/devkitpro/devkitarm/bin/../lib/gcc/arm-eabi/4.3.2/thumb/crtbegin.o
 .ARM.attributes
                0x0000006b       0x1c Font.o
 .ARM.attributes
                0x00000087       0x1c Level1.o
 .ARM.attributes
                0x000000a3       0x1c Meter.o
 .ARM.attributes
                0x000000bf       0x1c Score.o
 .ARM.attributes
                0x000000db       0x1c Sprites.o
 .ARM.attributes
                0x000000f7       0x1c StarBack.o
 .ARM.attributes
                0x00000113       0x1c StarFront.o
 .ARM.attributes
                0x0000012f       0x10 blaster.o
 .ARM.attributes
                0x0000013f       0x10 ingame.o
 .ARM.attributes
                0x0000014f       0x1e audio.o
 .ARM.attributes
                0x0000016d       0x1e bioscalls.o
 .ARM.attributes
                0x0000018b       0x1e clearbg.o
 .ARM.attributes
                0x000001a9       0x1e collidebg.o
 .ARM.attributes
                0x000001c7       0x1c colmap1.o
 .ARM.attributes
                0x000001e3       0x1e debug.o
 .ARM.attributes
                0x00000201       0x1e divide.o
 .ARM.attributes
                0x0000021f       0x1e drawmap.o
 .ARM.attributes
                0x0000023d       0x1e drawscore.o
 .ARM.attributes
                0x0000025b       0x1e drawsprite.o
 .ARM.attributes
                0x00000279       0x1e drawtext.o
 .ARM.attributes
                0x00000297       0x1e fire.o
 .ARM.attributes
                0x000002b5       0x1e globals.o
 .ARM.attributes
                0x000002d3       0x1e initdata.o
 .ARM.attributes
                0x000002f1       0x1e initsprites.o
 .ARM.attributes
                0x0000030f       0x1e initvideo.o
 .ARM.attributes
                0x0000032d       0x1e interruptDispatcher.o
 .ARM.attributes
                0x0000034b       0x1e interruptHandler.o
 .ARM.attributes
                0x00000369       0x1e main.o
 .ARM.attributes
                0x00000387       0x1e moveship.o
 .ARM.attributes
                0x000003a5       0x1e scrollmap.o
 .ARM.attributes
                0x000003c3       0x1c sinus.o
 .ARM.attributes
                0x000003df       0x1e waitvblank.o
 .ARM.attributes
                0x000003fd       0x2e c:/devkitpro/devkitarm/bin/../lib/gcc/arm-eabi/4.3.2/../../../../arm-eabi/lib/thumb\libg.a(lib_a-init.o)
 .ARM.attributes
                0x0000042b       0x2c c:/devkitpro/devkitarm/bin/../lib/gcc/arm-eabi/4.3.2/../../../../arm-eabi/lib/thumb\libsysbase.a(malloc_vars.o)
 .ARM.attributes
                0x00000457       0x2e c:/devkitpro/devkitarm/bin/../lib/gcc/arm-eabi/4.3.2/../../../../arm-eabi/lib/thumb\libsysbase.a(build_argv.o)
 .ARM.attributes
                0x00000485       0x2c c:/devkitpro/devkitarm/bin/../lib/gcc/arm-eabi/4.3.2/thumb/crtend.o
 .ARM.attributes
                0x000004b1       0x1e c:/devkitpro/devkitarm/bin/../lib/gcc/arm-eabi/4.3.2/thumb/crtn.o

.debug_ranges   0x00000000       0x40
 .debug_ranges  0x00000000       0x20 c:/devkitpro/devkitarm/bin/../lib/gcc/arm-eabi/4.3.2/thumb/crti.o
 .debug_ranges  0x00000020       0x20 c:/devkitpro/devkitarm/bin/../lib/gcc/arm-eabi/4.3.2/thumb/crtn.o
